; Function Attrs: null_pointer_is_valid sspstrong uwtable
define internal void @output_field_dfilter_prime_edt(ptr noundef %0, ptr noundef %1) #0 {
  %.not = icmp eq ptr %0, null
  br i1 %.not, label %4, label %3

3:                                                ; preds = %2
  tail call void @epan_dissect_prime_with_dfilter(ptr noundef %1, ptr noundef nonnull %0)
  br label %4

4:                                                ; preds = %3, %2
  ret void
}